target datalayout = "e-m:e-p270:32:32-p271:32:32-p272:64:64-i64:64-i128:128-f80:128-n8:16:32:64-S128"
target triple = "x86_64-unknown-linux-gnu"

%"class.std::__cxx11::basic_string" = type { %"struct.std::__cxx11::basic_string<char>::_Alloc_hider", i64, %union.anon.0 }
%"struct.std::__cxx11::basic_string<char>::_Alloc_hider" = type { ptr }
%union.anon.0 = type { i64, [8 x i8] }
%"class.OpenImageIO_v2_6_0::Filesystem::IOProxy" = type { ptr, %"class.std::__cxx11::basic_string", i64, i32, %"class.std::__cxx11::basic_string" }

; Function Attrs: mustprogress uwtable
define noundef i64 @_ZN18OpenImageIO_v2_6_010Filesystem11IOMemReader4readEPvm(ptr noundef nonnull align 8 dereferenceable(104) %this, ptr noundef %buf, i64 noundef %size) unnamed_addr #6 align 2 {
entry:
  %this.addr = alloca ptr, align 8
  %buf.addr = alloca ptr, align 8
  %size.addr = alloca i64, align 8
  store ptr %this, ptr %this.addr, align 8
  store ptr %buf, ptr %buf.addr, align 8
  store i64 %size, ptr %size.addr, align 8
  %this1 = load ptr, ptr %this.addr, align 8
  %0 = load ptr, ptr %buf.addr, align 8
  %1 = load i64, ptr %size.addr, align 8
  %m_pos = getelementptr inbounds %"class.OpenImageIO_v2_6_0::Filesystem::IOProxy", ptr %this1, i32 0, i32 2
  %2 = load i64, ptr %m_pos, align 8
  %vtable = load ptr, ptr %this1, align 8
  %vfn = getelementptr inbounds ptr, ptr %vtable, i64 9
  %3 = load ptr, ptr %vfn, align 8
  %call = call noundef i64 %3(ptr noundef nonnull align 8 dereferenceable(104) %this1, ptr noundef %0, i64 noundef %1, i64 noundef %2)
  store i64 %call, ptr %size.addr, align 8
  %4 = load i64, ptr %size.addr, align 8
  %m_pos2 = getelementptr inbounds %"class.OpenImageIO_v2_6_0::Filesystem::IOProxy", ptr %this1, i32 0, i32 2
  %5 = load i64, ptr %m_pos2, align 8
  %add = add i64 %5, %4
  store i64 %add, ptr %m_pos2, align 8
  %6 = load i64, ptr %size.addr, align 8
  ret i64 %6
}