; Function Attrs: mustprogress uwtable
define noundef i64 @_ZN18OpenImageIO_v2_6_010Filesystem11IOMemReader4readEPvm(ptr noundef nonnull align 8 dereferenceable(104) %this, ptr noundef %buf, i64 noundef %size) unnamed_addr #5 align 2 {
entry:
  %m_pos = getelementptr inbounds i8, ptr %this, i64 40
  %0 = load i64, ptr %m_pos, align 8
  %vtable = load ptr, ptr %this, align 8
  %vfn = getelementptr inbounds i8, ptr %vtable, i64 72
  %1 = load ptr, ptr %vfn, align 8
  %call = tail call noundef i64 %1(ptr noundef nonnull align 8 dereferenceable(104) %this, ptr noundef %buf, i64 noundef %size, i64 noundef %0)
  %2 = load i64, ptr %m_pos, align 8
  %add = add i64 %2, %call
  store i64 %add, ptr %m_pos, align 8
  ret i64 %call
}